target datalayout = "e-m:e-p270:32:32-p271:32:32-p272:64:64-i64:64-i128:128-f80:128-n8:16:32:64-S128"
target triple = "x86_64-pc-linux-gnu"

%"struct.duckdb_re2::CaseFold" = type { i32, i32, i32 }

@_ZN10duckdb_re216unicode_casefoldE = external global [0 x %"struct.duckdb_re2::CaseFold"], align 4
@_ZN10duckdb_re220num_unicode_casefoldE = external constant i32, align 4

; Function Attrs: mustprogress nounwind uwtable
define hidden noundef i32 @_ZN10duckdb_re29ApplyFoldEPKNS_8CaseFoldEi(ptr noundef %0, i32 noundef %1) #0 {
  %3 = alloca i32, align 4
  %4 = alloca ptr, align 8
  %5 = alloca i32, align 4
  store ptr %0, ptr %4, align 8, !tbaa !63
  store i32 %1, ptr %5, align 4, !tbaa !3
  %6 = load ptr, ptr %4, align 8, !tbaa !63
  %7 = getelementptr inbounds nuw %"struct.duckdb_re2::CaseFold", ptr %6, i32 0, i32 2
  %8 = load i32, ptr %7, align 4, !tbaa !69
  switch i32 %8, label %9 [
    i32 1073741824, label %15
    i32 1, label %26
    i32 1073741825, label %36
    i32 -1, label %47
  ]

9:                                                ; preds = %2
  %10 = load i32, ptr %5, align 4, !tbaa !3
  %11 = load ptr, ptr %4, align 8, !tbaa !63
  %12 = getelementptr inbounds nuw %"struct.duckdb_re2::CaseFold", ptr %11, i32 0, i32 2
  %13 = load i32, ptr %12, align 4, !tbaa !69
  %14 = add nsw i32 %10, %13
  store i32 %14, ptr %3, align 4
  br label %57

15:                                               ; preds = %2
  %16 = load i32, ptr %5, align 4, !tbaa !3
  %17 = load ptr, ptr %4, align 8, !tbaa !63
  %18 = getelementptr inbounds nuw %"struct.duckdb_re2::CaseFold", ptr %17, i32 0, i32 0
  %19 = load i32, ptr %18, align 4, !tbaa !65
  %20 = sub nsw i32 %16, %19
  %21 = srem i32 %20, 2
  %22 = icmp ne i32 %21, 0
  br i1 %22, label %23, label %25

23:                                               ; preds = %15
  %24 = load i32, ptr %5, align 4, !tbaa !3
  store i32 %24, ptr %3, align 4
  br label %57

25:                                               ; preds = %15
  br label %26

26:                                               ; preds = %2, %25
  %27 = load i32, ptr %5, align 4, !tbaa !3
  %28 = srem i32 %27, 2
  %29 = icmp eq i32 %28, 0
  br i1 %29, label %30, label %33

30:                                               ; preds = %26
  %31 = load i32, ptr %5, align 4, !tbaa !3
  %32 = add nsw i32 %31, 1
  store i32 %32, ptr %3, align 4
  br label %57

33:                                               ; preds = %26
  %34 = load i32, ptr %5, align 4, !tbaa !3
  %35 = sub nsw i32 %34, 1
  store i32 %35, ptr %3, align 4
  br label %57

36:                                               ; preds = %2
  %37 = load i32, ptr %5, align 4, !tbaa !3
  %38 = load ptr, ptr %4, align 8, !tbaa !63
  %39 = getelementptr inbounds nuw %"struct.duckdb_re2::CaseFold", ptr %38, i32 0, i32 0
  %40 = load i32, ptr %39, align 4, !tbaa !65
  %41 = sub nsw i32 %37, %40
  %42 = srem i32 %41, 2
  %43 = icmp ne i32 %42, 0
  br i1 %43, label %44, label %46

44:                                               ; preds = %36
  %45 = load i32, ptr %5, align 4, !tbaa !3
  store i32 %45, ptr %3, align 4
  br label %57

46:                                               ; preds = %36
  br label %47

47:                                               ; preds = %2, %46
  %48 = load i32, ptr %5, align 4, !tbaa !3
  %49 = srem i32 %48, 2
  %50 = icmp eq i32 %49, 1
  br i1 %50, label %51, label %54

51:                                               ; preds = %47
  %52 = load i32, ptr %5, align 4, !tbaa !3
  %53 = add nsw i32 %52, 1
  store i32 %53, ptr %3, align 4
  br label %57

54:                                               ; preds = %47
  %55 = load i32, ptr %5, align 4, !tbaa !3
  %56 = sub nsw i32 %55, 1
  store i32 %56, ptr %3, align 4
  br label %57

57:                                               ; preds = %54, %51, %44, %33, %30, %23, %9
  %58 = load i32, ptr %3, align 4
  ret i32 %58
}

; Function Attrs: mustprogress nounwind uwtable
define hidden noundef ptr @_ZN10duckdb_re214LookupCaseFoldEPKNS_8CaseFoldEii(ptr noundef %0, i32 noundef %1, i32 noundef %2) #0 {
  %4 = alloca ptr, align 8
  %5 = alloca ptr, align 8
  %6 = alloca i32, align 4
  %7 = alloca i32, align 4
  %8 = alloca ptr, align 8
  %9 = alloca i32, align 4
  %10 = alloca i32, align 4
  store ptr %0, ptr %5, align 8, !tbaa !63
  store i32 %1, ptr %6, align 4, !tbaa !3
  store i32 %2, ptr %7, align 4, !tbaa !3
  call void @llvm.lifetime.start.p0(i64 8, ptr %8) #19
  %11 = load ptr, ptr %5, align 8, !tbaa !63
  %12 = load i32, ptr %6, align 4, !tbaa !3
  %13 = sext i32 %12 to i64
  %14 = getelementptr inbounds %"struct.duckdb_re2::CaseFold", ptr %11, i64 %13
  store ptr %14, ptr %8, align 8, !tbaa !63
  br label %15

15:                                               ; preds = %67, %3
  %16 = load i32, ptr %6, align 4, !tbaa !3
  %17 = icmp sgt i32 %16, 0
  br i1 %17, label %18, label %68

18:                                               ; preds = %15
  call void @llvm.lifetime.start.p0(i64 4, ptr %9) #19
  %19 = load i32, ptr %6, align 4, !tbaa !3
  %20 = sdiv i32 %19, 2
  store i32 %20, ptr %9, align 4, !tbaa !3
  %21 = load ptr, ptr %5, align 8, !tbaa !63
  %22 = load i32, ptr %9, align 4, !tbaa !3
  %23 = sext i32 %22 to i64
  %24 = getelementptr inbounds %"struct.duckdb_re2::CaseFold", ptr %21, i64 %23
  %25 = getelementptr inbounds nuw %"struct.duckdb_re2::CaseFold", ptr %24, i32 0, i32 0
  %26 = load i32, ptr %25, align 4, !tbaa !65
  %27 = load i32, ptr %7, align 4, !tbaa !3
  %28 = icmp sle i32 %26, %27
  br i1 %28, label %29, label %43

29:                                               ; preds = %18
  %30 = load i32, ptr %7, align 4, !tbaa !3
  %31 = load ptr, ptr %5, align 8, !tbaa !63
  %32 = load i32, ptr %9, align 4, !tbaa !3
  %33 = sext i32 %32 to i64
  %34 = getelementptr inbounds %"struct.duckdb_re2::CaseFold", ptr %31, i64 %33
  %35 = getelementptr inbounds nuw %"struct.duckdb_re2::CaseFold", ptr %34, i32 0, i32 1
  %36 = load i32, ptr %35, align 4, !tbaa !67
  %37 = icmp sle i32 %30, %36
  br i1 %37, label %38, label %43

38:                                               ; preds = %29
  %39 = load ptr, ptr %5, align 8, !tbaa !63
  %40 = load i32, ptr %9, align 4, !tbaa !3
  %41 = sext i32 %40 to i64
  %42 = getelementptr inbounds %"struct.duckdb_re2::CaseFold", ptr %39, i64 %41
  store ptr %42, ptr %4, align 8
  store i32 1, ptr %10, align 4
  br label %65

43:                                               ; preds = %29, %18
  %44 = load i32, ptr %7, align 4, !tbaa !3
  %45 = load ptr, ptr %5, align 8, !tbaa !63
  %46 = load i32, ptr %9, align 4, !tbaa !3
  %47 = sext i32 %46 to i64
  %48 = getelementptr inbounds %"struct.duckdb_re2::CaseFold", ptr %45, i64 %47
  %49 = getelementptr inbounds nuw %"struct.duckdb_re2::CaseFold", ptr %48, i32 0, i32 0
  %50 = load i32, ptr %49, align 4, !tbaa !65
  %51 = icmp slt i32 %44, %50
  br i1 %51, label %52, label %54

52:                                               ; preds = %43
  %53 = load i32, ptr %9, align 4, !tbaa !3
  store i32 %53, ptr %6, align 4, !tbaa !3
  br label %64

54:                                               ; preds = %43
  %55 = load i32, ptr %9, align 4, !tbaa !3
  %56 = add nsw i32 %55, 1
  %57 = load ptr, ptr %5, align 8, !tbaa !63
  %58 = sext i32 %56 to i64
  %59 = getelementptr inbounds %"struct.duckdb_re2::CaseFold", ptr %57, i64 %58
  store ptr %59, ptr %5, align 8, !tbaa !63
  %60 = load i32, ptr %9, align 4, !tbaa !3
  %61 = add nsw i32 %60, 1
  %62 = load i32, ptr %6, align 4, !tbaa !3
  %63 = sub nsw i32 %62, %61
  store i32 %63, ptr %6, align 4, !tbaa !3
  br label %64

64:                                               ; preds = %54, %52
  store i32 0, ptr %10, align 4
  br label %65

65:                                               ; preds = %64, %38
  call void @llvm.lifetime.end.p0(i64 4, ptr %9) #19
  %66 = load i32, ptr %10, align 4
  switch i32 %66, label %75 [
    i32 0, label %67
  ]

67:                                               ; preds = %65
  br label %15, !llvm.loop !68

68:                                               ; preds = %15
  %69 = load ptr, ptr %5, align 8, !tbaa !63
  %70 = load ptr, ptr %8, align 8, !tbaa !63
  %71 = icmp ult ptr %69, %70
  br i1 %71, label %72, label %74

72:                                               ; preds = %68
  %73 = load ptr, ptr %5, align 8, !tbaa !63
  store ptr %73, ptr %4, align 8
  store i32 1, ptr %10, align 4
  br label %75

74:                                               ; preds = %68
  store ptr null, ptr %4, align 8
  store i32 1, ptr %10, align 4
  br label %75

75:                                               ; preds = %74, %72, %65
  call void @llvm.lifetime.end.p0(i64 8, ptr %8) #19
  %76 = load ptr, ptr %4, align 8
  ret ptr %76
}

; Function Attrs: mustprogress nounwind uwtable
define hidden noundef i32 @_ZN10duckdb_re213CycleFoldRuneEi(i32 noundef %0) #0 {
  %2 = alloca i32, align 4
  %3 = alloca i32, align 4
  %4 = alloca ptr, align 8
  %5 = alloca i32, align 4
  store i32 %0, ptr %3, align 4, !tbaa !3
  call void @llvm.lifetime.start.p0(i64 8, ptr %4) #19
  %6 = load i32, ptr @_ZN10duckdb_re220num_unicode_casefoldE, align 4, !tbaa !3
  %7 = load i32, ptr %3, align 4, !tbaa !3
  %8 = call noundef ptr @_ZN10duckdb_re214LookupCaseFoldEPKNS_8CaseFoldEii(ptr noundef @_ZN10duckdb_re216unicode_casefoldE, i32 noundef %6, i32 noundef %7)
  store ptr %8, ptr %4, align 8, !tbaa !63
  %9 = load ptr, ptr %4, align 8, !tbaa !63
  %10 = icmp eq ptr %9, null
  br i1 %10, label %17, label %11

11:                                               ; preds = %1
  %12 = load i32, ptr %3, align 4, !tbaa !3
  %13 = load ptr, ptr %4, align 8, !tbaa !63
  %14 = getelementptr inbounds nuw %"struct.duckdb_re2::CaseFold", ptr %13, i32 0, i32 0
  %15 = load i32, ptr %14, align 4, !tbaa !65
  %16 = icmp slt i32 %12, %15
  br i1 %16, label %17, label %19

17:                                               ; preds = %11, %1
  %18 = load i32, ptr %3, align 4, !tbaa !3
  store i32 %18, ptr %2, align 4
  store i32 1, ptr %5, align 4
  br label %23

19:                                               ; preds = %11
  %20 = load ptr, ptr %4, align 8, !tbaa !63
  %21 = load i32, ptr %3, align 4, !tbaa !3
  %22 = call noundef i32 @_ZN10duckdb_re29ApplyFoldEPKNS_8CaseFoldEi(ptr noundef %20, i32 noundef %21)
  store i32 %22, ptr %2, align 4
  store i32 1, ptr %5, align 4
  br label %23

23:                                               ; preds = %19, %17
  call void @llvm.lifetime.end.p0(i64 8, ptr %4) #19
  %24 = load i32, ptr %2, align 4
  ret i32 %24
}