; Function Attrs: mustprogress nofree norecurse nosync nounwind willreturn memory(read, argmem: none, inaccessiblemem: none) uwtable
define hidden noundef i32 @_ZN10duckdb_re213CycleFoldRuneEi(i32 noundef %0) local_unnamed_addr #14 {
  %2 = load i32, ptr @_ZN10duckdb_re220num_unicode_casefoldE, align 4, !tbaa !3
  %3 = sext i32 %2 to i64
  %4 = getelementptr inbounds %"struct.duckdb_re2::CaseFold", ptr @_ZN10duckdb_re216unicode_casefoldE, i64 %3
  %5 = icmp sgt i32 %2, 0
  br i1 %5, label %.lr.ph.i, label %_ZN10duckdb_re29ApplyFoldEPKNS_8CaseFoldEi.exit

.lr.ph.i:                                         ; preds = %1, %13
  %.02539.i = phi ptr [ %.227.i, %13 ], [ @_ZN10duckdb_re216unicode_casefoldE, %1 ]
  %.02838.i = phi i32 [ %.230.i, %13 ], [ %2, %1 ]
  %6 = lshr i32 %.02838.i, 1
  %7 = zext nneg i32 %6 to i64
  %8 = getelementptr inbounds nuw %"struct.duckdb_re2::CaseFold", ptr %.02539.i, i64 %7
  %9 = load i32, ptr %8, align 4, !tbaa !52
  %.not.i = icmp sgt i32 %9, %0
  br i1 %.not.i, label %13, label %10

10:                                               ; preds = %.lr.ph.i
  %11 = getelementptr inbounds nuw i8, ptr %8, i64 4
  %12 = load i32, ptr %11, align 4, !tbaa !54
  %.not32.i = icmp sgt i32 %0, %12
  br i1 %.not32.i, label %13, label %_ZN10duckdb_re214LookupCaseFoldEPKNS_8CaseFoldEii.exit.thread11

13:                                               ; preds = %10, %.lr.ph.i
  %14 = add nuw nsw i32 %6, 1
  %15 = sub nsw i32 %.02838.i, %14
  %.230.i = select i1 %.not.i, i32 %6, i32 %15
  %narrow.i = select i1 %.not.i, i32 0, i32 %14
  %.227.idx.i = zext nneg i32 %narrow.i to i64
  %.227.i = getelementptr inbounds nuw %"struct.duckdb_re2::CaseFold", ptr %.02539.i, i64 %.227.idx.i
  %16 = icmp sgt i32 %.230.i, 0
  br i1 %16, label %.lr.ph.i, label %._crit_edge.i, !llvm.loop !55

._crit_edge.i:                                    ; preds = %13
  %.not = icmp ult ptr %.227.i, %4
  br i1 %.not, label %._crit_edge.i._ZN10duckdb_re214LookupCaseFoldEPKNS_8CaseFoldEii.exit.thread11_crit_edge, label %_ZN10duckdb_re29ApplyFoldEPKNS_8CaseFoldEi.exit

._crit_edge.i._ZN10duckdb_re214LookupCaseFoldEPKNS_8CaseFoldEii.exit.thread11_crit_edge: ; preds = %._crit_edge.i
  %.pre = load i32, ptr %.227.i, align 4, !tbaa !52
  br label %_ZN10duckdb_re214LookupCaseFoldEPKNS_8CaseFoldEii.exit.thread11

_ZN10duckdb_re214LookupCaseFoldEPKNS_8CaseFoldEii.exit.thread11: ; preds = %10, %._crit_edge.i._ZN10duckdb_re214LookupCaseFoldEPKNS_8CaseFoldEii.exit.thread11_crit_edge
  %17 = phi i32 [ %.pre, %._crit_edge.i._ZN10duckdb_re214LookupCaseFoldEPKNS_8CaseFoldEii.exit.thread11_crit_edge ], [ %9, %10 ]
  %18 = phi i64 [ %.227.idx.i, %._crit_edge.i._ZN10duckdb_re214LookupCaseFoldEPKNS_8CaseFoldEii.exit.thread11_crit_edge ], [ %7, %10 ]
  %19 = icmp slt i32 %0, %17
  br i1 %19, label %_ZN10duckdb_re29ApplyFoldEPKNS_8CaseFoldEi.exit, label %20

20:                                               ; preds = %_ZN10duckdb_re214LookupCaseFoldEPKNS_8CaseFoldEii.exit.thread11
  %21 = getelementptr inbounds nuw %"struct.duckdb_re2::CaseFold", ptr %.02539.i, i64 %18, i32 2
  %22 = load i32, ptr %21, align 4, !tbaa !56
  switch i32 %22, label %23 [
    i32 1073741824, label %25
    i32 1, label %28
    i32 1073741825, label %35
    i32 -1, label %38
  ]

23:                                               ; preds = %20
  %24 = add nsw i32 %22, %0
  br label %_ZN10duckdb_re29ApplyFoldEPKNS_8CaseFoldEi.exit

25:                                               ; preds = %20
  %26 = sub nsw i32 %0, %17
  %27 = and i32 %26, 1
  %.not15.i = icmp eq i32 %27, 0
  br i1 %.not15.i, label %28, label %_ZN10duckdb_re29ApplyFoldEPKNS_8CaseFoldEi.exit

28:                                               ; preds = %25, %20
  %29 = and i32 %0, 1
  %30 = icmp eq i32 %29, 0
  br i1 %30, label %31, label %33

31:                                               ; preds = %28
  %32 = or disjoint i32 %0, 1
  br label %_ZN10duckdb_re29ApplyFoldEPKNS_8CaseFoldEi.exit

33:                                               ; preds = %28
  %34 = add nsw i32 %0, -1
  br label %_ZN10duckdb_re29ApplyFoldEPKNS_8CaseFoldEi.exit

35:                                               ; preds = %20
  %36 = sub nsw i32 %0, %17
  %37 = and i32 %36, 1
  %.not.i9 = icmp eq i32 %37, 0
  br i1 %.not.i9, label %38, label %_ZN10duckdb_re29ApplyFoldEPKNS_8CaseFoldEi.exit

38:                                               ; preds = %35, %20
  %39 = and i32 %0, -2147483647
  %40 = icmp eq i32 %39, 1
  br i1 %40, label %41, label %43

41:                                               ; preds = %38
  %42 = add nuw nsw i32 %0, 1
  br label %_ZN10duckdb_re29ApplyFoldEPKNS_8CaseFoldEi.exit

43:                                               ; preds = %38
  %44 = add nsw i32 %0, -1
  br label %_ZN10duckdb_re29ApplyFoldEPKNS_8CaseFoldEi.exit

_ZN10duckdb_re29ApplyFoldEPKNS_8CaseFoldEi.exit:  ; preds = %1, %._crit_edge.i, %43, %41, %35, %33, %31, %25, %23, %_ZN10duckdb_re214LookupCaseFoldEPKNS_8CaseFoldEii.exit.thread11
  %.0 = phi i32 [ %0, %_ZN10duckdb_re214LookupCaseFoldEPKNS_8CaseFoldEii.exit.thread11 ], [ %24, %23 ], [ %42, %41 ], [ %44, %43 ], [ %32, %31 ], [ %34, %33 ], [ %0, %25 ], [ %0, %35 ], [ %0, %._crit_edge.i ], [ %0, %1 ]
  ret i32 %.0
}